; Function Attrs: nounwind uwtable
define internal void @sskdf_reset(ptr noundef %0) #0 {
  %2 = load ptr, ptr %0, align 8, !tbaa !3
  %3 = getelementptr inbounds nuw i8, ptr %0, i64 8
  %4 = load ptr, ptr %3, align 8, !tbaa !15
  tail call void @EVP_MAC_CTX_free(ptr noundef %4) #7
  %5 = getelementptr inbounds nuw i8, ptr %0, i64 16
  tail call void @ossl_prov_digest_reset(ptr noundef nonnull %5) #7
  %6 = getelementptr inbounds nuw i8, ptr %0, i64 40
  %7 = load ptr, ptr %6, align 8, !tbaa !20
  %8 = getelementptr inbounds nuw i8, ptr %0, i64 48
  %9 = load i64, ptr %8, align 8, !tbaa !21
  tail call void @CRYPTO_clear_free(ptr noundef %7, i64 noundef %9, ptr noundef nonnull @.str, i32 noundef 330) #7
  %10 = getelementptr inbounds nuw i8, ptr %0, i64 56
  %11 = load ptr, ptr %10, align 8, !tbaa !16
  %12 = getelementptr inbounds nuw i8, ptr %0, i64 64
  %13 = load i64, ptr %12, align 8, !tbaa !17
  tail call void @CRYPTO_clear_free(ptr noundef %11, i64 noundef %13, ptr noundef nonnull @.str, i32 noundef 331) #7
  %14 = getelementptr inbounds nuw i8, ptr %0, i64 72
  %15 = load ptr, ptr %14, align 8, !tbaa !18
  %16 = getelementptr inbounds nuw i8, ptr %0, i64 80
  %17 = load i64, ptr %16, align 8, !tbaa !19
  tail call void @CRYPTO_clear_free(ptr noundef %15, i64 noundef %17, ptr noundef nonnull @.str, i32 noundef 332) #7
  %18 = getelementptr inbounds nuw i8, ptr %0, i64 8
  tail call void @llvm.memset.p0.i64(ptr noundef nonnull align 8 dereferenceable(104) %18, i8 0, i64 96, i1 false)
  store ptr %2, ptr %0, align 8, !tbaa !3
  ret void
}